target datalayout = "e-m:e-p270:32:32-p271:32:32-p272:64:64-i64:64-i128:128-f80:128-n8:16:32:64-S128"
target triple = "x86_64-pc-linux-gnu"

%struct.rb_data_type_struct = type { ptr, %struct.anon.12, ptr, ptr, i64 }
%struct.anon.12 = type { ptr, ptr, ptr, ptr, [1 x ptr] }
%struct.rb_code_location_struct = type { %struct.rb_code_position_struct, %struct.rb_code_position_struct }
%struct.rb_code_position_struct = type { i32, i32 }
%struct.ASTNodeData = type { i64, ptr }
%struct.RNode = type { i64, %struct.rb_code_location_struct, i32 }
%struct.RTypedData = type { %struct.RBasic, ptr, i64, ptr }
%struct.RBasic = type { i64, i64 }
%struct.RNode_BLOCK = type { %struct.RNode, ptr, ptr, ptr }

@rb_cNode = internal global i64 0, align 8
@rb_node_type = internal constant %struct.rb_data_type_struct { ptr @.str.24, %struct.anon.12 { ptr @node_gc_mark, ptr inttoptr (i64 -1 to ptr), ptr @node_memsize, ptr null, [1 x ptr] zeroinitializer }, ptr null, ptr null, i64 1 }, align 8

; Function Attrs: inlinehint nounwind sspstrong uwtable
define internal zeroext i1 @RTYPEDDATA_EMBEDDED_P(i64 noundef %0) #5 {
  %2 = alloca i64, align 8
  store i64 %0, ptr %2, align 8, !tbaa !12
  %3 = load i64, ptr %2, align 8, !tbaa !12
  %4 = inttoptr i64 %3 to ptr
  %5 = getelementptr inbounds nuw %struct.RTypedData, ptr %4, i32 0, i32 2
  %6 = load i64, ptr %5, align 8, !tbaa !114
  %7 = and i64 %6, 2
  %8 = icmp ne i64 %7, 0
  ret i1 %8
}

; Function Attrs: inlinehint nounwind sspstrong uwtable
define internal ptr @RTYPEDDATA_GET_DATA(i64 noundef %0) #5 {
  %2 = alloca i64, align 8
  %3 = alloca i64, align 8
  store i64 %0, ptr %2, align 8, !tbaa !12
  call void @llvm.lifetime.start.p0(i64 8, ptr %3) #16
  store i64 32, ptr %3, align 8, !tbaa !12
  %4 = load i64, ptr %2, align 8, !tbaa !12
  %5 = call zeroext i1 @RTYPEDDATA_EMBEDDED_P(i64 noundef %4)
  br i1 %5, label %6, label %10

6:                                                ; preds = %1
  %7 = load i64, ptr %2, align 8, !tbaa !12
  %8 = inttoptr i64 %7 to ptr
  %9 = getelementptr i8, ptr %8, i64 32
  br label %15

10:                                               ; preds = %1
  %11 = load i64, ptr %2, align 8, !tbaa !12
  %12 = inttoptr i64 %11 to ptr
  %13 = getelementptr inbounds nuw %struct.RTypedData, ptr %12, i32 0, i32 3
  %14 = load ptr, ptr %13, align 8, !tbaa !110
  br label %15

15:                                               ; preds = %10, %6
  %16 = phi ptr [ %9, %6 ], [ %14, %10 ]
  call void @llvm.lifetime.end.p0(i64 8, ptr %3) #16
  ret ptr %16
}

; Function Attrs: nounwind sspstrong uwtable
define internal void @setup_node(i64 noundef %0, i64 noundef %1, ptr noundef %2) #0 {
  %4 = alloca i64, align 8
  %5 = alloca i64, align 8
  %6 = alloca ptr, align 8
  %7 = alloca ptr, align 8
  store i64 %0, ptr %4, align 8, !tbaa !12
  store i64 %1, ptr %5, align 8, !tbaa !12
  store ptr %2, ptr %6, align 8, !tbaa !109
  call void @llvm.lifetime.start.p0(i64 8, ptr %7) #16
  %8 = load i64, ptr %4, align 8, !tbaa !12
  %9 = call ptr @rb_check_typeddata(i64 noundef %8, ptr noundef @rb_node_type)
  store ptr %9, ptr %7, align 8, !tbaa !44
  %10 = load i64, ptr %5, align 8, !tbaa !12
  %11 = load ptr, ptr %7, align 8, !tbaa !44
  %12 = getelementptr inbounds nuw %struct.ASTNodeData, ptr %11, i32 0, i32 0
  store i64 %10, ptr %12, align 8, !tbaa !54
  %13 = load ptr, ptr %6, align 8, !tbaa !109
  %14 = load ptr, ptr %7, align 8, !tbaa !44
  %15 = getelementptr inbounds nuw %struct.ASTNodeData, ptr %14, i32 0, i32 1
  store ptr %13, ptr %15, align 8, !tbaa !46
  call void @llvm.lifetime.end.p0(i64 8, ptr %7) #16
  ret void
}

; Function Attrs: nounwind sspstrong uwtable
define internal i64 @rb_ast_node_alloc(i64 noundef %0) #0 {
  %2 = alloca i64, align 8
  %3 = alloca ptr, align 8
  %4 = alloca i64, align 8
  %5 = alloca i64, align 8
  %6 = alloca i64, align 8
  store i64 %0, ptr %2, align 8, !tbaa !12
  call void @llvm.lifetime.start.p0(i64 8, ptr %3) #16
  call void @llvm.lifetime.start.p0(i64 8, ptr %4) #16
  call void @llvm.lifetime.start.p0(i64 8, ptr %5) #16
  %7 = load i64, ptr %2, align 8, !tbaa !12
  %8 = call i64 @rb_data_typed_object_zalloc(i64 noundef %7, i64 noundef 16, ptr noundef @rb_node_type)
  store i64 %8, ptr %5, align 8, !tbaa !12
  %9 = load i64, ptr %5, align 8, !tbaa !12
  %10 = call ptr @RTYPEDDATA_GET_DATA(i64 noundef %9)
  store ptr %10, ptr %3, align 8, !tbaa !44
  %11 = load i64, ptr %5, align 8, !tbaa !12
  store i64 %11, ptr %6, align 8, !tbaa !12
  call void @llvm.lifetime.end.p0(i64 8, ptr %5) #16
  %12 = load i64, ptr %6, align 8, !tbaa !12
  store i64 %12, ptr %4, align 8, !tbaa !12
  %13 = load i64, ptr %4, align 8, !tbaa !12
  call void @llvm.lifetime.end.p0(i64 8, ptr %4) #16
  call void @llvm.lifetime.end.p0(i64 8, ptr %3) #16
  ret i64 %13
}

; Function Attrs: inlinehint nounwind sspstrong uwtable
define internal zeroext i1 @nd_type_p(ptr noundef %0, i32 noundef %1) #5 {
  %3 = alloca ptr, align 8
  %4 = alloca i32, align 4
  store ptr %0, ptr %3, align 8, !tbaa !109
  store i32 %1, ptr %4, align 4, !tbaa !16
  %5 = load ptr, ptr %3, align 8, !tbaa !109
  %6 = getelementptr inbounds nuw %struct.RNode, ptr %5, i32 0, i32 0
  %7 = load i64, ptr %6, align 8, !tbaa !129
  %8 = and i64 %7, 32512
  %9 = lshr i64 %8, 8
  %10 = trunc i64 %9 to i32
  %11 = load i32, ptr %4, align 4, !tbaa !16
  %12 = icmp eq i32 %10, %11
  ret i1 %12
}

; Function Attrs: nounwind sspstrong uwtable
define internal i64 @ast_new_internal(i64 noundef %0, ptr noundef %1) #0 {
  %3 = alloca i64, align 8
  %4 = alloca ptr, align 8
  %5 = alloca i64, align 8
  store i64 %0, ptr %3, align 8, !tbaa !12
  store ptr %1, ptr %4, align 8, !tbaa !109
  call void @llvm.lifetime.start.p0(i64 8, ptr %5) #16
  %6 = load i64, ptr @rb_cNode, align 8, !tbaa !12
  %7 = call i64 @rb_ast_node_alloc(i64 noundef %6)
  store i64 %7, ptr %5, align 8, !tbaa !12
  %8 = load i64, ptr %5, align 8, !tbaa !12
  %9 = load i64, ptr %3, align 8, !tbaa !12
  %10 = load ptr, ptr %4, align 8, !tbaa !109
  call void @setup_node(i64 noundef %8, i64 noundef %9, ptr noundef %10)
  %11 = load i64, ptr %5, align 8, !tbaa !12
  call void @llvm.lifetime.end.p0(i64 8, ptr %5) #16
  ret i64 %11
}

; Function Attrs: nounwind sspstrong uwtable
define internal i64 @dump_block(i64 noundef %0, ptr noundef %1) #0 {
  %3 = alloca i64, align 8
  %4 = alloca ptr, align 8
  %5 = alloca i64, align 8
  store i64 %0, ptr %3, align 8, !tbaa !12
  store ptr %1, ptr %4, align 8, !tbaa !386
  call void @llvm.lifetime.start.p0(i64 8, ptr %5) #16
  %6 = call i64 @rb_ary_new()
  store i64 %6, ptr %5, align 8, !tbaa !12
  br label %7

7:                                                ; preds = %37, %2
  %8 = load i64, ptr %5, align 8, !tbaa !12
  %9 = load ptr, ptr %4, align 8, !tbaa !386
  %10 = getelementptr inbounds nuw %struct.RNode_BLOCK, ptr %9, i32 0, i32 1
  %11 = load ptr, ptr %10, align 8, !tbaa !388
  %12 = icmp ne ptr %11, null
  br i1 %12, label %13, label %19

13:                                               ; preds = %7
  %14 = load i64, ptr %3, align 8, !tbaa !12
  %15 = load ptr, ptr %4, align 8, !tbaa !386
  %16 = getelementptr inbounds nuw %struct.RNode_BLOCK, ptr %15, i32 0, i32 1
  %17 = load ptr, ptr %16, align 8, !tbaa !388
  %18 = call i64 @ast_new_internal(i64 noundef %14, ptr noundef %17)
  br label %20

19:                                               ; preds = %7
  br label %20

20:                                               ; preds = %19, %13
  %21 = phi i64 [ %18, %13 ], [ 4, %19 ]
  %22 = call i64 @rb_ary_push(i64 noundef %8, i64 noundef %21)
  br label %23

23:                                               ; preds = %20
  %24 = load ptr, ptr %4, align 8, !tbaa !386
  %25 = getelementptr inbounds nuw %struct.RNode_BLOCK, ptr %24, i32 0, i32 3
  %26 = load ptr, ptr %25, align 8, !tbaa !390
  %27 = icmp ne ptr %26, null
  br i1 %27, label %28, label %37

28:                                               ; preds = %23
  %29 = load ptr, ptr %4, align 8, !tbaa !386
  %30 = getelementptr inbounds nuw %struct.RNode_BLOCK, ptr %29, i32 0, i32 3
  %31 = load ptr, ptr %30, align 8, !tbaa !390
  %32 = call zeroext i1 @nd_type_p(ptr noundef %31, i32 noundef 1)
  br i1 %32, label %33, label %37

33:                                               ; preds = %28
  %34 = load ptr, ptr %4, align 8, !tbaa !386
  %35 = getelementptr inbounds nuw %struct.RNode_BLOCK, ptr %34, i32 0, i32 3
  %36 = load ptr, ptr %35, align 8, !tbaa !390
  store ptr %36, ptr %4, align 8, !tbaa !386
  br label %37

37:                                               ; preds = %33, %28, %23
  %38 = phi i1 [ false, %28 ], [ false, %23 ], [ true, %33 ]
  br i1 %38, label %7, label %39, !llvm.loop !391

39:                                               ; preds = %37
  %40 = load ptr, ptr %4, align 8, !tbaa !386
  %41 = getelementptr inbounds nuw %struct.RNode_BLOCK, ptr %40, i32 0, i32 3
  %42 = load ptr, ptr %41, align 8, !tbaa !390
  %43 = icmp ne ptr %42, null
  br i1 %43, label %44, label %60

44:                                               ; preds = %39
  %45 = load i64, ptr %5, align 8, !tbaa !12
  %46 = load ptr, ptr %4, align 8, !tbaa !386
  %47 = getelementptr inbounds nuw %struct.RNode_BLOCK, ptr %46, i32 0, i32 3
  %48 = load ptr, ptr %47, align 8, !tbaa !390
  %49 = icmp ne ptr %48, null
  br i1 %49, label %50, label %56

50:                                               ; preds = %44
  %51 = load i64, ptr %3, align 8, !tbaa !12
  %52 = load ptr, ptr %4, align 8, !tbaa !386
  %53 = getelementptr inbounds nuw %struct.RNode_BLOCK, ptr %52, i32 0, i32 3
  %54 = load ptr, ptr %53, align 8, !tbaa !390
  %55 = call i64 @ast_new_internal(i64 noundef %51, ptr noundef %54)
  br label %57

56:                                               ; preds = %44
  br label %57

57:                                               ; preds = %56, %50
  %58 = phi i64 [ %55, %50 ], [ 4, %56 ]
  %59 = call i64 @rb_ary_push(i64 noundef %45, i64 noundef %58)
  br label %60

60:                                               ; preds = %57, %39
  %61 = load i64, ptr %5, align 8, !tbaa !12
  call void @llvm.lifetime.end.p0(i64 8, ptr %5) #16
  ret i64 %61
}