; Function Attrs: nounwind sspstrong uwtable
define internal fastcc i64 @dump_block(i64 noundef %0, ptr noundef readonly captures(none) %1) unnamed_addr #0 {
  %3 = tail call i64 @rb_ary_new() #11
  br label %4

4:                                                ; preds = %17, %2
  %.0 = phi ptr [ %1, %2 ], [ %16, %17 ]
  %5 = getelementptr inbounds nuw i8, ptr %.0, i64 32
  %6 = load ptr, ptr %5, align 8, !tbaa !367
  %.not = icmp eq ptr %6, null
  br i1 %.not, label %12, label %7

7:                                                ; preds = %4
  %8 = load i64, ptr @rb_cNode, align 8, !tbaa !47
  %9 = tail call i64 @rb_data_typed_object_zalloc(i64 noundef %8, i64 noundef 16, ptr noundef nonnull @rb_node_type) #11
  %10 = tail call ptr @rb_check_typeddata(i64 noundef %9, ptr noundef nonnull @rb_node_type) #11
  store i64 %0, ptr %10, align 8, !tbaa !70
  %11 = getelementptr inbounds nuw i8, ptr %10, i64 8
  store ptr %6, ptr %11, align 8, !tbaa !72
  br label %12

12:                                               ; preds = %4, %7
  %13 = phi i64 [ %9, %7 ], [ 4, %4 ]
  %14 = tail call i64 @rb_ary_push(i64 noundef %3, i64 noundef %13) #11
  %15 = getelementptr inbounds nuw i8, ptr %.0, i64 48
  %16 = load ptr, ptr %15, align 8, !tbaa !369
  %.not15 = icmp eq ptr %16, null
  br i1 %.not15, label %.critedge.thread, label %17

17:                                               ; preds = %12
  %.val = load i64, ptr %16, align 8, !tbaa !73
  %18 = and i64 %.val, 32512
  %19 = icmp eq i64 %18, 256
  br i1 %19, label %4, label %.critedge, !llvm.loop !370

.critedge:                                        ; preds = %17
  %20 = load i64, ptr @rb_cNode, align 8, !tbaa !47
  %21 = tail call i64 @rb_data_typed_object_zalloc(i64 noundef %20, i64 noundef 16, ptr noundef nonnull @rb_node_type) #11
  %22 = tail call ptr @rb_check_typeddata(i64 noundef %21, ptr noundef nonnull @rb_node_type) #11
  store i64 %0, ptr %22, align 8, !tbaa !70
  %23 = getelementptr inbounds nuw i8, ptr %22, i64 8
  store ptr %16, ptr %23, align 8, !tbaa !72
  %24 = tail call i64 @rb_ary_push(i64 noundef %3, i64 noundef %21) #11
  br label %.critedge.thread

.critedge.thread:                                 ; preds = %12, %.critedge
  ret i64 %3
}